; ModuleID = '20/405.c'
source_filename = "20/405.c"
target datalayout = "e-m:e-p270:32:32-p271:32:32-p272:64:64-i64:64-f80:128-n8:16:32:64-S128"
target triple = "x86_64-pc-linux-gnu"

@.str = private unnamed_addr constant [6 x i8] c"%s %s\00", align 1
@.str.1 = private unnamed_addr constant [4 x i8] c"%s\0A\00", align 1

; Function Attrs: noinline nounwind uwtable
define dso_local i32 @main() #0 {
  %1 = alloca i32, align 4
  %2 = alloca i32, align 4
  %3 = alloca i32, align 4
  %4 = alloca [100 x [20 x i8]], align 16
  %5 = alloca i32, align 4
  %6 = alloca i8, align 1
  %7 = alloca [20 x i8], align 16
  %8 = alloca [20 x i8], align 16
  %9 = alloca [20 x i8], align 16
  %10 = alloca [5 x i8], align 1
  store i32 0, i32* %1, align 4
  store i32 0, i32* %5, align 4
  br label %11

11:                                               ; preds = %77, %0
  %12 = getelementptr inbounds [20 x i8], [20 x i8]* %9, i64 0, i64 0
  %13 = getelementptr inbounds [5 x i8], [5 x i8]* %10, i64 0, i64 0
  %14 = call i32 (i8*, ...) @__isoc99_scanf(i8* getelementptr inbounds ([6 x i8], [6 x i8]* @.str, i64 0, i64 0), i8* %12, i8* %13)
  %15 = icmp ne i32 %14, -1
  br i1 %15, label %16, label %95

16:                                               ; preds = %11
  store i8 0, i8* %6, align 1
  store i32 0, i32* %2, align 4
  br label %17

17:                                               ; preds = %39, %16
  %18 = load i32, i32* %2, align 4
  %19 = sext i32 %18 to i64
  %20 = getelementptr inbounds [20 x i8], [20 x i8]* %9, i64 0, i64 0
  %21 = call i64 @strlen(i8* %20) #4
  %22 = icmp ult i64 %19, %21
  br i1 %22, label %23, label %42

23:                                               ; preds = %17
  %24 = load i32, i32* %2, align 4
  %25 = sext i32 %24 to i64
  %26 = getelementptr inbounds [20 x i8], [20 x i8]* %9, i64 0, i64 %25
  %27 = load i8, i8* %26, align 1
  %28 = sext i8 %27 to i32
  %29 = load i8, i8* %6, align 1
  %30 = sext i8 %29 to i32
  %31 = icmp sgt i32 %28, %30
  br i1 %31, label %32, label %38

32:                                               ; preds = %23
  %33 = load i32, i32* %2, align 4
  %34 = sext i32 %33 to i64
  %35 = getelementptr inbounds [20 x i8], [20 x i8]* %9, i64 0, i64 %34
  %36 = load i8, i8* %35, align 1
  store i8 %36, i8* %6, align 1
  %37 = load i32, i32* %2, align 4
  store i32 %37, i32* %3, align 4
  br label %38

38:                                               ; preds = %32, %23
  br label %39

39:                                               ; preds = %38
  %40 = load i32, i32* %2, align 4
  %41 = add nsw i32 %40, 1
  store i32 %41, i32* %2, align 4
  br label %17

42:                                               ; preds = %17
  %43 = getelementptr inbounds [20 x i8], [20 x i8]* %7, i64 0, i64 0
  %44 = getelementptr inbounds [20 x i8], [20 x i8]* %9, i64 0, i64 0
  %45 = call i8* @strcpy(i8* %43, i8* %44) #5
  %46 = load i32, i32* %3, align 4
  %47 = add nsw i32 %46, 1
  %48 = sext i32 %47 to i64
  %49 = getelementptr inbounds [20 x i8], [20 x i8]* %7, i64 0, i64 %48
  store i8 0, i8* %49, align 1
  %50 = getelementptr inbounds [20 x i8], [20 x i8]* %7, i64 0, i64 0
  %51 = getelementptr inbounds [20 x i8], [20 x i8]* %7, i64 0, i64 0
  %52 = getelementptr inbounds [5 x i8], [5 x i8]* %10, i64 0, i64 0
  %53 = call i8* @strcat(i8* %51, i8* %52) #5
  %54 = call i8* @strcpy(i8* %50, i8* %53) #5
  %55 = load i32, i32* %3, align 4
  %56 = add nsw i32 %55, 1
  store i32 %56, i32* %2, align 4
  br label %57

57:                                               ; preds = %74, %42
  %58 = load i32, i32* %2, align 4
  %59 = sext i32 %58 to i64
  %60 = getelementptr inbounds [20 x i8], [20 x i8]* %9, i64 0, i64 0
  %61 = call i64 @strlen(i8* %60) #4
  %62 = icmp ult i64 %59, %61
  br i1 %62, label %63, label %77

63:                                               ; preds = %57
  %64 = load i32, i32* %2, align 4
  %65 = sext i32 %64 to i64
  %66 = getelementptr inbounds [20 x i8], [20 x i8]* %9, i64 0, i64 %65
  %67 = load i8, i8* %66, align 1
  %68 = load i32, i32* %2, align 4
  %69 = load i32, i32* %3, align 4
  %70 = sub nsw i32 %68, %69
  %71 = sub nsw i32 %70, 1
  %72 = sext i32 %71 to i64
  %73 = getelementptr inbounds [20 x i8], [20 x i8]* %8, i64 0, i64 %72
  store i8 %67, i8* %73, align 1
  br label %74

74:                                               ; preds = %63
  %75 = load i32, i32* %2, align 4
  %76 = add nsw i32 %75, 1
  store i32 %76, i32* %2, align 4
  br label %57

77:                                               ; preds = %57
  %78 = getelementptr inbounds [20 x i8], [20 x i8]* %9, i64 0, i64 0
  %79 = call i64 @strlen(i8* %78) #4
  %80 = load i32, i32* %3, align 4
  %81 = sext i32 %80 to i64
  %82 = sub i64 %79, %81
  %83 = sub i64 %82, 1
  %84 = getelementptr inbounds [20 x i8], [20 x i8]* %8, i64 0, i64 %83
  store i8 0, i8* %84, align 1
  %85 = load i32, i32* %5, align 4
  %86 = sext i32 %85 to i64
  %87 = getelementptr inbounds [100 x [20 x i8]], [100 x [20 x i8]]* %4, i64 0, i64 %86
  %88 = getelementptr inbounds [20 x i8], [20 x i8]* %87, i64 0, i64 0
  %89 = getelementptr inbounds [20 x i8], [20 x i8]* %7, i64 0, i64 0
  %90 = getelementptr inbounds [20 x i8], [20 x i8]* %8, i64 0, i64 0
  %91 = call i8* @strcat(i8* %89, i8* %90) #5
  %92 = call i8* @strcpy(i8* %88, i8* %91) #5
  %93 = load i32, i32* %5, align 4
  %94 = add nsw i32 %93, 1
  store i32 %94, i32* %5, align 4
  br label %11

95:                                               ; preds = %11
  store i32 0, i32* %2, align 4
  br label %96

96:                                               ; preds = %106, %95
  %97 = load i32, i32* %2, align 4
  %98 = load i32, i32* %5, align 4
  %99 = icmp slt i32 %97, %98
  br i1 %99, label %100, label %109

100:                                              ; preds = %96
  %101 = load i32, i32* %2, align 4
  %102 = sext i32 %101 to i64
  %103 = getelementptr inbounds [100 x [20 x i8]], [100 x [20 x i8]]* %4, i64 0, i64 %102
  %104 = getelementptr inbounds [20 x i8], [20 x i8]* %103, i64 0, i64 0
  %105 = call i32 (i8*, ...) @printf(i8* getelementptr inbounds ([4 x i8], [4 x i8]* @.str.1, i64 0, i64 0), i8* %104)
  br label %106

106:                                              ; preds = %100
  %107 = load i32, i32* %2, align 4
  %108 = add nsw i32 %107, 1
  store i32 %108, i32* %2, align 4
  br label %96

109:                                              ; preds = %96
  %110 = load i32, i32* %1, align 4
  ret i32 %110
}

declare dso_local i32 @__isoc99_scanf(i8*, ...) #1

; Function Attrs: nounwind readonly
declare dso_local i64 @strlen(i8*) #2

; Function Attrs: nounwind
declare dso_local i8* @strcpy(i8*, i8*) #3

; Function Attrs: nounwind
declare dso_local i8* @strcat(i8*, i8*) #3

declare dso_local i32 @printf(i8*, ...) #1


!llvm.module.flags = !{!0}
!llvm.ident = !{!1}

!0 = !{i32 1, !"wchar_size", i32 4}
!1 = !{!"clang version 10.0.0-4ubuntu1 "}
